; Function Attrs: mustprogress nounwind uwtable
define hidden void @_ZN5osgeo4proj12GTiffDatasetD0Ev(ptr noundef nonnull align 8 dereferenceable(192) initializes((0, 8)) %0) unnamed_addr #4 align 2 personality ptr @__gxx_personality_v0 {
  store ptr getelementptr inbounds nuw inrange(-16, 16) (i8, ptr @_ZTVN5osgeo4proj12GTiffDatasetE, i64 16), ptr %0, align 8, !tbaa !19
  %2 = getelementptr inbounds nuw i8, ptr %0, i64 24
  %3 = load ptr, ptr %2, align 8, !tbaa !223
  %.not.i = icmp eq ptr %3, null
  br i1 %.not.i, label %5, label %4

4:                                                ; preds = %1
  invoke void @TIFFClose(ptr noundef nonnull %3)
          to label %5 unwind label %21

5:                                                ; preds = %4, %1
  %6 = getelementptr inbounds nuw i8, ptr %0, i64 80
  tail call void @_ZN5osgeo4proj5lru115CacheImSt6vectorIhSaIhEENS1_8NullLockESt13unordered_mapImSt14_List_iteratorINS1_12KeyValuePairImS5_EEESt4hashImESt8equal_toImESaISt4pairIKmSB_EEEED2Ev(ptr noundef nonnull align 8 dereferenceable(112) %6) #34
  %7 = getelementptr inbounds nuw i8, ptr %0, i64 48
  %8 = load ptr, ptr %7, align 8, !tbaa !25
  %9 = getelementptr inbounds nuw i8, ptr %0, i64 64
  %10 = icmp eq ptr %8, %9
  br i1 %10, label %_ZNKSt7__cxx1112basic_stringIcSt11char_traitsIcESaIcEE11_M_is_localEv.exit.thread.i.i.i, label %_ZNKSt7__cxx1112basic_stringIcSt11char_traitsIcESaIcEE11_M_is_localEv.exit.i.i.i

_ZNKSt7__cxx1112basic_stringIcSt11char_traitsIcESaIcEE11_M_is_localEv.exit.thread.i.i.i: ; preds = %5
  %11 = getelementptr inbounds nuw i8, ptr %0, i64 56
  %12 = load i64, ptr %11, align 8, !tbaa !28
  %13 = icmp ult i64 %12, 16
  tail call void @llvm.assume(i1 %13)
  br label %_ZNSt7__cxx1112basic_stringIcSt11char_traitsIcESaIcEED2Ev.exit.i

_ZNKSt7__cxx1112basic_stringIcSt11char_traitsIcESaIcEE11_M_is_localEv.exit.i.i.i: ; preds = %5
  %14 = load i64, ptr %9, align 8, !tbaa !30
  %15 = add i64 %14, 1
  tail call void @_ZdlPvm(ptr noundef %8, i64 noundef %15) #35
  br label %_ZNSt7__cxx1112basic_stringIcSt11char_traitsIcESaIcEED2Ev.exit.i

_ZNSt7__cxx1112basic_stringIcSt11char_traitsIcESaIcEED2Ev.exit.i: ; preds = %_ZNKSt7__cxx1112basic_stringIcSt11char_traitsIcESaIcEE11_M_is_localEv.exit.i.i.i, %_ZNKSt7__cxx1112basic_stringIcSt11char_traitsIcESaIcEE11_M_is_localEv.exit.thread.i.i.i
  %16 = getelementptr inbounds nuw i8, ptr %0, i64 16
  %17 = load ptr, ptr %16, align 8, !tbaa !80
  %.not.i.i = icmp eq ptr %17, null
  br i1 %.not.i.i, label %_ZN5osgeo4proj12GTiffDatasetD2Ev.exit, label %_ZNKSt14default_deleteIN5osgeo4proj4FileEEclEPS2_.exit.i.i

_ZNKSt14default_deleteIN5osgeo4proj4FileEEclEPS2_.exit.i.i: ; preds = %_ZNSt7__cxx1112basic_stringIcSt11char_traitsIcESaIcEED2Ev.exit.i
  %18 = load ptr, ptr %17, align 8, !tbaa !19
  %19 = getelementptr inbounds nuw i8, ptr %18, i64 8
  %20 = load ptr, ptr %19, align 8
  tail call void %20(ptr noundef nonnull align 8 dereferenceable(73) %17) #34
  br label %_ZN5osgeo4proj12GTiffDatasetD2Ev.exit

21:                                               ; preds = %4
  %22 = landingpad { ptr, i32 }
          catch ptr null
  %23 = extractvalue { ptr, i32 } %22, 0
  tail call void @__clang_call_terminate(ptr %23) #36
  unreachable

_ZN5osgeo4proj12GTiffDatasetD2Ev.exit:            ; preds = %_ZNSt7__cxx1112basic_stringIcSt11char_traitsIcESaIcEED2Ev.exit.i, %_ZNKSt14default_deleteIN5osgeo4proj4FileEEclEPS2_.exit.i.i
  tail call void @_ZdlPvm(ptr noundef nonnull %0, i64 noundef 192) #35
  ret void
}